; ModuleID = 'source-C-CXX/29/430.cpp'
source_filename = "source-C-CXX/29/430.cpp"
target datalayout = "e-m:e-p270:32:32-p271:32:32-p272:64:64-i64:64-f80:128-n8:16:32:64-S128"
target triple = "x86_64-pc-linux-gnu"

%"class.std::ios_base::Init" = type { i8 }
%"class.std::basic_istream" = type { i32 (...)**, i64, %"class.std::basic_ios" }
%"class.std::basic_ios" = type { %"class.std::ios_base", %"class.std::basic_ostream"*, i8, i8, %"class.std::basic_streambuf"*, %"class.std::ctype"*, %"class.std::num_put"*, %"class.std::num_get"* }
%"class.std::ios_base" = type { i32 (...)**, i64, i64, i32, i32, i32, %"struct.std::ios_base::_Callback_list"*, %"struct.std::ios_base::_Words", [8 x %"struct.std::ios_base::_Words"], i32, %"struct.std::ios_base::_Words"*, %"class.std::locale" }
%"struct.std::ios_base::_Callback_list" = type { %"struct.std::ios_base::_Callback_list"*, void (i32, %"class.std::ios_base"*, i32)*, i32, i32 }
%"struct.std::ios_base::_Words" = type { i8*, i64 }
%"class.std::locale" = type { %"class.std::locale::_Impl"* }
%"class.std::locale::_Impl" = type { i32, %"class.std::locale::facet"**, i64, %"class.std::locale::facet"**, i8** }
%"class.std::locale::facet" = type <{ i32 (...)**, i32, [4 x i8] }>
%"class.std::basic_ostream" = type { i32 (...)**, %"class.std::basic_ios" }
%"class.std::basic_streambuf" = type { i32 (...)**, i8*, i8*, i8*, i8*, i8*, i8*, %"class.std::locale" }
%"class.std::ctype" = type <{ %"class.std::locale::facet.base", [4 x i8], %struct.__locale_struct*, i8, [7 x i8], i32*, i32*, i16*, i8, [256 x i8], [256 x i8], i8, [6 x i8] }>
%"class.std::locale::facet.base" = type <{ i32 (...)**, i32 }>
%struct.__locale_struct = type { [13 x %struct.__locale_data*], i16*, i32*, i32*, [13 x i8*] }
%struct.__locale_data = type opaque
%"class.std::num_put" = type { %"class.std::locale::facet.base", [4 x i8] }
%"class.std::num_get" = type { %"class.std::locale::facet.base", [4 x i8] }

@_ZStL8__ioinit = internal global %"class.std::ios_base::Init" zeroinitializer, align 1
@__dso_handle = external hidden global i8
@_ZSt3cin = external global %"class.std::basic_istream", align 8
@_ZSt4cout = external global %"class.std::basic_ostream", align 8
@llvm.global_ctors = appending global [1 x { i32, void ()*, i8* }] [{ i32, void ()*, i8* } { i32 65535, void ()* @_GLOBAL__sub_I_430.cpp, i8* null }]

declare void @_ZNSt8ios_base4InitC1Ev(%"class.std::ios_base::Init"* nonnull align 1 dereferenceable(1)) unnamed_addr #0

; Function Attrs: nounwind
declare void @_ZNSt8ios_base4InitD1Ev(%"class.std::ios_base::Init"* nonnull align 1 dereferenceable(1)) unnamed_addr #1

; Function Attrs: nofree nounwind
declare i32 @__cxa_atexit(void (i8*)*, i8*, i8*) local_unnamed_addr #2

; Function Attrs: mustprogress norecurse sspstrong uwtable
define dso_local i32 @main() local_unnamed_addr #3 {
  %1 = alloca i32, align 4
  %2 = bitcast i32* %1 to i8*
  call void @llvm.lifetime.start.p0i8(i64 4, i8* nonnull %2) #9
  %3 = call nonnull align 8 dereferenceable(16) %"class.std::basic_istream"* @_ZNSirsERi(%"class.std::basic_istream"* nonnull align 8 dereferenceable(16) @_ZSt3cin, i32* nonnull align 4 dereferenceable(4) %1)
  %4 = load i32, i32* %1, align 4, !tbaa !5
  %5 = add nsw i32 %4, 1
  %6 = zext i32 %5 to i64
  %7 = call i8* @llvm.stacksave()
  %8 = alloca i32, i64 %6, align 16
  %9 = load i32, i32* %1, align 4, !tbaa !5
  %10 = icmp slt i32 %9, 1
  br i1 %10, label %162, label %11

11:                                               ; preds = %0
  %12 = add nuw i32 %9, 1
  %13 = zext i32 %12 to i64
  %14 = add nsw i64 %13, -1
  %15 = icmp ult i64 %14, 4
  br i1 %15, label %42, label %16

16:                                               ; preds = %11
  %17 = and i64 %14, -4
  %18 = or i64 %17, 1
  br label %19

19:                                               ; preds = %19, %16
  %20 = phi i64 [ 0, %16 ], [ %36, %19 ]
  %21 = phi <4 x i32> [ <i32 1, i32 2, i32 3, i32 4>, %16 ], [ %37, %19 ]
  %22 = phi <4 x i32> [ <i32 1, i32 2, i32 3, i32 4>, %16 ], [ %38, %19 ]
  %23 = or i64 %20, 1
  %24 = urem <4 x i32> %21, <i32 7, i32 7, i32 7, i32 7>
  %25 = icmp eq <4 x i32> %24, zeroinitializer
  %26 = urem <4 x i32> %21, <i32 10, i32 10, i32 10, i32 10>
  %27 = icmp eq <4 x i32> %26, <i32 7, i32 7, i32 7, i32 7>
  %28 = or <4 x i1> %25, %27
  %29 = add <4 x i32> %22, <i32 -70, i32 -70, i32 -70, i32 -70>
  %30 = icmp ult <4 x i32> %29, <i32 10, i32 10, i32 10, i32 10>
  %31 = select <4 x i1> %28, <4 x i1> <i1 true, i1 true, i1 true, i1 true>, <4 x i1> %30
  %32 = mul nsw <4 x i32> %21, %21
  %33 = select <4 x i1> %31, <4 x i32> zeroinitializer, <4 x i32> %32
  %34 = getelementptr inbounds i32, i32* %8, i64 %23
  %35 = bitcast i32* %34 to <4 x i32>*
  store <4 x i32> %33, <4 x i32>* %35, align 4
  %36 = add nuw i64 %20, 4
  %37 = add <4 x i32> %21, <i32 4, i32 4, i32 4, i32 4>
  %38 = add <4 x i32> %22, <i32 4, i32 4, i32 4, i32 4>
  %39 = icmp eq i64 %36, %17
  br i1 %39, label %40, label %19, !llvm.loop !9

40:                                               ; preds = %19
  %41 = icmp eq i64 %14, %17
  br i1 %41, label %44, label %42

42:                                               ; preds = %11, %40
  %43 = phi i64 [ 1, %11 ], [ %18, %40 ]
  br label %137

44:                                               ; preds = %137, %40
  br i1 %10, label %162, label %45

45:                                               ; preds = %44
  %46 = add nuw i32 %9, 1
  %47 = zext i32 %46 to i64
  %48 = add nsw i64 %13, -1
  %49 = icmp ult i64 %48, 8
  br i1 %49, label %134, label %50

50:                                               ; preds = %45
  %51 = and i64 %48, -8
  %52 = or i64 %51, 1
  %53 = add nsw i64 %51, -8
  %54 = lshr exact i64 %53, 3
  %55 = add nuw nsw i64 %54, 1
  %56 = and i64 %55, 3
  %57 = icmp ult i64 %53, 24
  br i1 %57, label %104, label %58

58:                                               ; preds = %50
  %59 = and i64 %55, 4611686018427387900
  br label %60

60:                                               ; preds = %60, %58
  %61 = phi i64 [ 0, %58 ], [ %101, %60 ]
  %62 = phi <4 x i32> [ zeroinitializer, %58 ], [ %99, %60 ]
  %63 = phi <4 x i32> [ zeroinitializer, %58 ], [ %100, %60 ]
  %64 = phi i64 [ %59, %58 ], [ %102, %60 ]
  %65 = or i64 %61, 1
  %66 = getelementptr inbounds i32, i32* %8, i64 %65
  %67 = bitcast i32* %66 to <4 x i32>*
  %68 = load <4 x i32>, <4 x i32>* %67, align 4, !tbaa !5
  %69 = getelementptr inbounds i32, i32* %66, i64 4
  %70 = bitcast i32* %69 to <4 x i32>*
  %71 = load <4 x i32>, <4 x i32>* %70, align 4, !tbaa !5
  %72 = add <4 x i32> %68, %62
  %73 = add <4 x i32> %71, %63
  %74 = or i64 %61, 9
  %75 = getelementptr inbounds i32, i32* %8, i64 %74
  %76 = bitcast i32* %75 to <4 x i32>*
  %77 = load <4 x i32>, <4 x i32>* %76, align 4, !tbaa !5
  %78 = getelementptr inbounds i32, i32* %75, i64 4
  %79 = bitcast i32* %78 to <4 x i32>*
  %80 = load <4 x i32>, <4 x i32>* %79, align 4, !tbaa !5
  %81 = add <4 x i32> %77, %72
  %82 = add <4 x i32> %80, %73
  %83 = or i64 %61, 17
  %84 = getelementptr inbounds i32, i32* %8, i64 %83
  %85 = bitcast i32* %84 to <4 x i32>*
  %86 = load <4 x i32>, <4 x i32>* %85, align 4, !tbaa !5
  %87 = getelementptr inbounds i32, i32* %84, i64 4
  %88 = bitcast i32* %87 to <4 x i32>*
  %89 = load <4 x i32>, <4 x i32>* %88, align 4, !tbaa !5
  %90 = add <4 x i32> %86, %81
  %91 = add <4 x i32> %89, %82
  %92 = or i64 %61, 25
  %93 = getelementptr inbounds i32, i32* %8, i64 %92
  %94 = bitcast i32* %93 to <4 x i32>*
  %95 = load <4 x i32>, <4 x i32>* %94, align 4, !tbaa !5
  %96 = getelementptr inbounds i32, i32* %93, i64 4
  %97 = bitcast i32* %96 to <4 x i32>*
  %98 = load <4 x i32>, <4 x i32>* %97, align 4, !tbaa !5
  %99 = add <4 x i32> %95, %90
  %100 = add <4 x i32> %98, %91
  %101 = add nuw i64 %61, 32
  %102 = add i64 %64, -4
  %103 = icmp eq i64 %102, 0
  br i1 %103, label %104, label %60, !llvm.loop !12

104:                                              ; preds = %60, %50
  %105 = phi <4 x i32> [ undef, %50 ], [ %99, %60 ]
  %106 = phi <4 x i32> [ undef, %50 ], [ %100, %60 ]
  %107 = phi i64 [ 0, %50 ], [ %101, %60 ]
  %108 = phi <4 x i32> [ zeroinitializer, %50 ], [ %99, %60 ]
  %109 = phi <4 x i32> [ zeroinitializer, %50 ], [ %100, %60 ]
  %110 = icmp eq i64 %56, 0
  br i1 %110, label %128, label %111

111:                                              ; preds = %104, %111
  %112 = phi i64 [ %125, %111 ], [ %107, %104 ]
  %113 = phi <4 x i32> [ %123, %111 ], [ %108, %104 ]
  %114 = phi <4 x i32> [ %124, %111 ], [ %109, %104 ]
  %115 = phi i64 [ %126, %111 ], [ %56, %104 ]
  %116 = or i64 %112, 1
  %117 = getelementptr inbounds i32, i32* %8, i64 %116
  %118 = bitcast i32* %117 to <4 x i32>*
  %119 = load <4 x i32>, <4 x i32>* %118, align 4, !tbaa !5
  %120 = getelementptr inbounds i32, i32* %117, i64 4
  %121 = bitcast i32* %120 to <4 x i32>*
  %122 = load <4 x i32>, <4 x i32>* %121, align 4, !tbaa !5
  %123 = add <4 x i32> %119, %113
  %124 = add <4 x i32> %122, %114
  %125 = add nuw i64 %112, 8
  %126 = add i64 %115, -1
  %127 = icmp eq i64 %126, 0
  br i1 %127, label %128, label %111, !llvm.loop !13

128:                                              ; preds = %111, %104
  %129 = phi <4 x i32> [ %105, %104 ], [ %123, %111 ]
  %130 = phi <4 x i32> [ %106, %104 ], [ %124, %111 ]
  %131 = add <4 x i32> %130, %129
  %132 = call i32 @llvm.vector.reduce.add.v4i32(<4 x i32> %131)
  %133 = icmp eq i64 %48, %51
  br i1 %133, label %162, label %134

134:                                              ; preds = %45, %128
  %135 = phi i64 [ 1, %45 ], [ %52, %128 ]
  %136 = phi i32 [ 0, %45 ], [ %132, %128 ]
  br label %154

137:                                              ; preds = %42, %137
  %138 = phi i64 [ %152, %137 ], [ %43, %42 ]
  %139 = trunc i64 %138 to i32
  %140 = urem i32 %139, 7
  %141 = icmp eq i32 %140, 0
  %142 = urem i32 %139, 10
  %143 = icmp eq i32 %142, 7
  %144 = or i1 %141, %143
  %145 = trunc i64 %138 to i32
  %146 = add i32 %145, -70
  %147 = icmp ult i32 %146, 10
  %148 = select i1 %144, i1 true, i1 %147
  %149 = mul nsw i32 %139, %139
  %150 = select i1 %148, i32 0, i32 %149
  %151 = getelementptr inbounds i32, i32* %8, i64 %138
  store i32 %150, i32* %151, align 4
  %152 = add nuw nsw i64 %138, 1
  %153 = icmp eq i64 %152, %13
  br i1 %153, label %44, label %137, !llvm.loop !15

154:                                              ; preds = %134, %154
  %155 = phi i64 [ %160, %154 ], [ %135, %134 ]
  %156 = phi i32 [ %159, %154 ], [ %136, %134 ]
  %157 = getelementptr inbounds i32, i32* %8, i64 %155
  %158 = load i32, i32* %157, align 4, !tbaa !5
  %159 = add nsw i32 %158, %156
  %160 = add nuw nsw i64 %155, 1
  %161 = icmp eq i64 %160, %47
  br i1 %161, label %162, label %154, !llvm.loop !17

162:                                              ; preds = %154, %128, %0, %44
  %163 = phi i32 [ 0, %44 ], [ 0, %0 ], [ %132, %128 ], [ %159, %154 ]
  %164 = call nonnull align 8 dereferenceable(8) %"class.std::basic_ostream"* @_ZNSolsEi(%"class.std::basic_ostream"* nonnull align 8 dereferenceable(8) @_ZSt4cout, i32 %163)
  %165 = bitcast %"class.std::basic_ostream"* %164 to i8**
  %166 = load i8*, i8** %165, align 8, !tbaa !18
  %167 = getelementptr i8, i8* %166, i64 -24
  %168 = bitcast i8* %167 to i64*
  %169 = load i64, i64* %168, align 8
  %170 = bitcast %"class.std::basic_ostream"* %164 to i8*
  %171 = add nsw i64 %169, 240
  %172 = getelementptr inbounds i8, i8* %170, i64 %171
  %173 = bitcast i8* %172 to %"class.std::ctype"**
  %174 = load %"class.std::ctype"*, %"class.std::ctype"** %173, align 8, !tbaa !20
  %175 = icmp eq %"class.std::ctype"* %174, null
  br i1 %175, label %176, label %177

176:                                              ; preds = %162
  call void @_ZSt16__throw_bad_castv() #10
  unreachable

177:                                              ; preds = %162
  %178 = getelementptr inbounds %"class.std::ctype", %"class.std::ctype"* %174, i64 0, i32 8
  %179 = load i8, i8* %178, align 8, !tbaa !24
  %180 = icmp eq i8 %179, 0
  br i1 %180, label %184, label %181

181:                                              ; preds = %177
  %182 = getelementptr inbounds %"class.std::ctype", %"class.std::ctype"* %174, i64 0, i32 9, i64 10
  %183 = load i8, i8* %182, align 1, !tbaa !26
  br label %190

184:                                              ; preds = %177
  call void @_ZNKSt5ctypeIcE13_M_widen_initEv(%"class.std::ctype"* nonnull align 8 dereferenceable(570) %174)
  %185 = bitcast %"class.std::ctype"* %174 to i8 (%"class.std::ctype"*, i8)***
  %186 = load i8 (%"class.std::ctype"*, i8)**, i8 (%"class.std::ctype"*, i8)*** %185, align 8, !tbaa !18
  %187 = getelementptr inbounds i8 (%"class.std::ctype"*, i8)*, i8 (%"class.std::ctype"*, i8)** %186, i64 6
  %188 = load i8 (%"class.std::ctype"*, i8)*, i8 (%"class.std::ctype"*, i8)** %187, align 8
  %189 = call signext i8 %188(%"class.std::ctype"* nonnull align 8 dereferenceable(570) %174, i8 signext 10)
  br label %190

190:                                              ; preds = %181, %184
  %191 = phi i8 [ %183, %181 ], [ %189, %184 ]
  %192 = call nonnull align 8 dereferenceable(8) %"class.std::basic_ostream"* @_ZNSo3putEc(%"class.std::basic_ostream"* nonnull align 8 dereferenceable(8) %164, i8 signext %191)
  %193 = call nonnull align 8 dereferenceable(8) %"class.std::basic_ostream"* @_ZNSo5flushEv(%"class.std::basic_ostream"* nonnull align 8 dereferenceable(8) %192)
  call void @llvm.stackrestore(i8* %7)
  call void @llvm.lifetime.end.p0i8(i64 4, i8* nonnull %2) #9
  ret i32 0
}

; Function Attrs: argmemonly mustprogress nofree nosync nounwind willreturn
declare void @llvm.lifetime.start.p0i8(i64 immarg, i8* nocapture) #4

declare nonnull align 8 dereferenceable(16) %"class.std::basic_istream"* @_ZNSirsERi(%"class.std::basic_istream"* nonnull align 8 dereferenceable(16), i32* nonnull align 4 dereferenceable(4)) local_unnamed_addr #0

; Function Attrs: mustprogress nofree nosync nounwind willreturn
declare i8* @llvm.stacksave() #5

declare nonnull align 8 dereferenceable(8) %"class.std::basic_ostream"* @_ZNSolsEi(%"class.std::basic_ostream"* nonnull align 8 dereferenceable(8), i32) local_unnamed_addr #0

; Function Attrs: mustprogress nofree nosync nounwind willreturn
declare void @llvm.stackrestore(i8*) #5

; Function Attrs: argmemonly mustprogress nofree nosync nounwind willreturn
declare void @llvm.lifetime.end.p0i8(i64 immarg, i8* nocapture) #4

declare nonnull align 8 dereferenceable(8) %"class.std::basic_ostream"* @_ZNSo3putEc(%"class.std::basic_ostream"* nonnull align 8 dereferenceable(8), i8 signext) local_unnamed_addr #0

declare nonnull align 8 dereferenceable(8) %"class.std::basic_ostream"* @_ZNSo5flushEv(%"class.std::basic_ostream"* nonnull align 8 dereferenceable(8)) local_unnamed_addr #0

; Function Attrs: noreturn
declare void @_ZSt16__throw_bad_castv() local_unnamed_addr #6

declare void @_ZNKSt5ctypeIcE13_M_widen_initEv(%"class.std::ctype"* nonnull align 8 dereferenceable(570)) local_unnamed_addr #0

; Function Attrs: sspstrong uwtable
define internal void @_GLOBAL__sub_I_430.cpp() #7 section ".text.startup" {
  tail call void @_ZNSt8ios_base4InitC1Ev(%"class.std::ios_base::Init"* nonnull align 1 dereferenceable(1) @_ZStL8__ioinit)
  %1 = tail call i32 @__cxa_atexit(void (i8*)* bitcast (void (%"class.std::ios_base::Init"*)* @_ZNSt8ios_base4InitD1Ev to void (i8*)*), i8* getelementptr inbounds (%"class.std::ios_base::Init", %"class.std::ios_base::Init"* @_ZStL8__ioinit, i64 0, i32 0), i8* nonnull @__dso_handle) #9
  ret void
}

; Function Attrs: nofree nosync nounwind readnone willreturn
declare i32 @llvm.vector.reduce.add.v4i32(<4 x i32>) #8


!llvm.module.flags = !{!0, !1, !2, !3}
!llvm.ident = !{!4}

!0 = !{i32 1, !"wchar_size", i32 4}
!1 = !{i32 7, !"PIC Level", i32 2}
!2 = !{i32 7, !"PIE Level", i32 2}
!3 = !{i32 7, !"uwtable", i32 1}
!4 = !{!"clang version 13.0.0"}
!5 = !{!6, !6, i64 0}
!6 = !{!"int", !7, i64 0}
!7 = !{!"omnipotent char", !8, i64 0}
!8 = !{!"Simple C++ TBAA"}
!9 = distinct !{!9, !10, !11}
!10 = !{!"llvm.loop.mustprogress"}
!11 = !{!"llvm.loop.isvectorized", i32 1}
!12 = distinct !{!12, !10, !11}
!13 = distinct !{!13, !14}
!14 = !{!"llvm.loop.unroll.disable"}
!15 = distinct !{!15, !10, !16, !11}
!16 = !{!"llvm.loop.unroll.runtime.disable"}
!17 = distinct !{!17, !10, !16, !11}
!18 = !{!19, !19, i64 0}
!19 = !{!"vtable pointer", !8, i64 0}
!20 = !{!21, !22, i64 240}
!21 = !{!"_ZTSSt9basic_iosIcSt11char_traitsIcEE", !22, i64 216, !7, i64 224, !23, i64 225, !22, i64 232, !22, i64 240, !22, i64 248, !22, i64 256}
!22 = !{!"any pointer", !7, i64 0}
!23 = !{!"bool", !7, i64 0}
!24 = !{!25, !7, i64 56}
!25 = !{!"_ZTSSt5ctypeIcE", !22, i64 16, !23, i64 24, !22, i64 32, !22, i64 40, !22, i64 48, !7, i64 56, !7, i64 57, !7, i64 313, !7, i64 569}
!26 = !{!7, !7, i64 0}
